; Function Attrs: nofree norecurse nosync nounwind memory(argmem: readwrite) uwtable
define internal void @blend_darken_16bit(ptr noundef readonly captures(none) %0, i64 noundef %1, ptr noundef readonly captures(none) %2, i64 noundef %3, ptr noundef writeonly captures(none) %4, i64 noundef %5, i64 noundef %6, i64 noundef %7, ptr noundef readonly captures(none) %8, ptr readnone captures(none) %9) #6 {
  %11 = getelementptr inbounds nuw i8, ptr %8, i64 8
  %12 = load double, ptr %11, align 8, !tbaa !70
  %13 = fptrunc nsz double %12 to float
  %14 = lshr i64 %5, 1
  %15 = lshr i64 %1, 1
  %16 = lshr i64 %3, 1
  %17 = icmp sgt i64 %7, 0
  %18 = icmp sgt i64 %6, 0
  %or.cond = and i1 %17, %18
  br i1 %or.cond, label %.preheader.us, label %._crit_edge45

.preheader.us:                                    ; preds = %10, %._crit_edge.us
  %indvars.iv49 = phi i64 [ %indvars.iv.next50, %._crit_edge.us ], [ 0, %10 ]
  %.03443.us = phi ptr [ %32, %._crit_edge.us ], [ %4, %10 ]
  %.03542.us = phi ptr [ %34, %._crit_edge.us ], [ %2, %10 ]
  %.03641.us = phi ptr [ %33, %._crit_edge.us ], [ %0, %10 ]
  br label %19

19:                                               ; preds = %.preheader.us, %19
  %indvars.iv = phi i64 [ 0, %.preheader.us ], [ %indvars.iv.next, %19 ]
  %20 = getelementptr inbounds nuw i16, ptr %.03641.us, i64 %indvars.iv
  %21 = load i16, ptr %20, align 2, !tbaa !85
  %22 = uitofp i16 %21 to float
  %23 = getelementptr inbounds nuw i16, ptr %.03542.us, i64 %indvars.iv
  %24 = load i16, ptr %23, align 2, !tbaa !85
  %..us = tail call i16 @llvm.umin.i16(i16 %21, i16 %24)
  %25 = zext i16 %..us to i32
  %26 = zext i16 %21 to i32
  %27 = sub nsw i32 %25, %26
  %28 = sitofp i32 %27 to float
  %29 = tail call nsz float @llvm.fmuladd.f32(float %28, float %13, float %22)
  %30 = fptoui float %29 to i16
  %31 = getelementptr inbounds nuw i16, ptr %.03443.us, i64 %indvars.iv
  store i16 %30, ptr %31, align 2, !tbaa !85
  %indvars.iv.next = add nuw nsw i64 %indvars.iv, 1
  %exitcond.not = icmp eq i64 %indvars.iv.next, %6
  br i1 %exitcond.not, label %._crit_edge.us, label %19, !llvm.loop !496

._crit_edge.us:                                   ; preds = %19
  %32 = getelementptr inbounds nuw i16, ptr %.03443.us, i64 %14
  %33 = getelementptr inbounds nuw i16, ptr %.03641.us, i64 %15
  %34 = getelementptr inbounds nuw i16, ptr %.03542.us, i64 %16
  %indvars.iv.next50 = add nuw nsw i64 %indvars.iv49, 1
  %exitcond52.not = icmp eq i64 %indvars.iv.next50, %7
  br i1 %exitcond52.not, label %._crit_edge45, label %.preheader.us, !llvm.loop !497

._crit_edge45:                                    ; preds = %._crit_edge.us, %10
  ret void
}